; Function Attrs: mustprogress uwtable
define noundef zeroext i1 @_ZNK32pxrInternal_v0_24__pxrReserved__26UsdPrimCompositionQueryArc10IsImplicitEv(ptr noundef nonnull align 8 dereferenceable(64) %0) local_unnamed_addr #0 align 2 personality ptr @__gxx_personality_v0 {
  %2 = alloca %"class.pxrInternal_v0_24__pxrReserved__::PcpLayerStackSite", align 8
  %3 = alloca %"class.pxrInternal_v0_24__pxrReserved__::PcpNodeRef", align 8
  %4 = alloca %"class.pxrInternal_v0_24__pxrReserved__::PcpLayerStackSite", align 8
  %5 = tail call noundef zeroext i1 @_ZNK32pxrInternal_v0_24__pxrReserved__10PcpNodeRef10IsRootNodeEv(ptr noundef nonnull align 8 dereferenceable(16) %0)
  br i1 %5, label %.critedge, label %6

6:                                                ; preds = %1
  %7 = tail call { ptr, i64 } @_ZNK32pxrInternal_v0_24__pxrReserved__10PcpNodeRef13GetParentNodeEv(ptr noundef nonnull align 8 dereferenceable(16) %0)
  %8 = extractvalue { ptr, i64 } %7, 0
  %9 = extractvalue { ptr, i64 } %7, 1
  %10 = getelementptr inbounds nuw i8, ptr %0, i64 32
  %11 = getelementptr inbounds nuw i8, ptr %0, i64 40
  %12 = load i64, ptr %11, align 8
  %13 = icmp ne i64 %9, %12
  %14 = load ptr, ptr %10, align 8
  %15 = icmp ne ptr %8, %14
  %.not3.i = select i1 %13, i1 true, i1 %15
  br i1 %.not3.i, label %16, label %.critedge

16:                                               ; preds = %6
  %17 = tail call { ptr, i64 } @_ZNK32pxrInternal_v0_24__pxrReserved__10PcpNodeRef13GetOriginNodeEv(ptr noundef nonnull align 8 dereferenceable(16) %0)
  %18 = extractvalue { ptr, i64 } %17, 0
  store ptr %18, ptr %3, align 8
  %19 = getelementptr inbounds nuw i8, ptr %3, i64 8
  %20 = extractvalue { ptr, i64 } %17, 1
  store i64 %20, ptr %19, align 8
  call void @_ZNK32pxrInternal_v0_24__pxrReserved__10PcpNodeRef7GetSiteEv(ptr dead_on_unwind nonnull writable sret(%"class.pxrInternal_v0_24__pxrReserved__::PcpLayerStackSite") align 8 %2, ptr noundef nonnull align 8 dereferenceable(16) %3)
  invoke void @_ZNK32pxrInternal_v0_24__pxrReserved__10PcpNodeRef7GetSiteEv(ptr dead_on_unwind nonnull writable sret(%"class.pxrInternal_v0_24__pxrReserved__::PcpLayerStackSite") align 8 %4, ptr noundef nonnull align 8 dereferenceable(16) %0)
          to label %21 unwind label %26

21:                                               ; preds = %16
  %22 = invoke noundef zeroext i1 @_ZNK32pxrInternal_v0_24__pxrReserved__17PcpLayerStackSiteeqERKS0_(ptr noundef nonnull align 8 dereferenceable(16) %2, ptr noundef nonnull align 8 dereferenceable(16) %4)
          to label %23 unwind label %28

23:                                               ; preds = %21
  %24 = xor i1 %22, true
  call void @_ZN32pxrInternal_v0_24__pxrReserved__17PcpLayerStackSiteD2Ev(ptr noundef nonnull align 8 dereferenceable(16) %4) #18
  call void @_ZN32pxrInternal_v0_24__pxrReserved__17PcpLayerStackSiteD2Ev(ptr noundef nonnull align 8 dereferenceable(16) %2) #18
  br label %.critedge

.critedge:                                        ; preds = %6, %1, %23
  %25 = phi i1 [ %24, %23 ], [ false, %1 ], [ false, %6 ]
  ret i1 %25

26:                                               ; preds = %16
  %27 = landingpad { ptr, i32 }
          cleanup
  br label %30

28:                                               ; preds = %21
  %29 = landingpad { ptr, i32 }
          cleanup
  call void @_ZN32pxrInternal_v0_24__pxrReserved__17PcpLayerStackSiteD2Ev(ptr noundef nonnull align 8 dereferenceable(16) %4) #18
  br label %30

30:                                               ; preds = %26, %28
  %.pn = phi { ptr, i32 } [ %29, %28 ], [ %27, %26 ]
  call void @_ZN32pxrInternal_v0_24__pxrReserved__17PcpLayerStackSiteD2Ev(ptr noundef nonnull align 8 dereferenceable(16) %2) #18
  resume { ptr, i32 } %.pn
}